target datalayout = "e-m:e-p270:32:32-p271:32:32-p272:64:64-i64:64-i128:128-f80:128-n8:16:32:64-S128"
target triple = "x86_64-pc-linux-gnu"

%struct.pa_sample_spec = type { i32, i32, i8 }
%struct.PaPulseAudio_Stream = type { %struct.PaUtilStreamRepresentation, %struct.PaUtilCpuLoadMeasurer, %struct.PaUtilBufferProcessor, ptr, i64, ptr, ptr, %struct.pa_sample_spec, %struct.pa_sample_spec, ptr, ptr, %struct.pa_buffer_attr, %struct.pa_buffer_attr, i32, i32, i32, i32, i64, i64, i32, i32, i32, i32, ptr, ptr, %struct.PaUtilRingBuffer, i64, i32, i32, i32, i32 }
%struct.PaUtilStreamRepresentation = type { i64, ptr, ptr, ptr, ptr, ptr, %struct.PaStreamInfo }
%struct.PaStreamInfo = type { i32, double, double, double }
%struct.PaUtilCpuLoadMeasurer = type { double, double, double }
%struct.PaUtilBufferProcessor = type { i64, i64, i32, i32, i32, i32, i64, i32, i32, i32, i32, ptr, ptr, i32, i32, i32, i32, ptr, ptr, i64, i64, ptr, ptr, i64, ptr, ptr, i64, ptr, i64, i32, [2 x i64], [2 x ptr], i32, [2 x i64], [2 x ptr], %struct.PaUtilTriangularDitherGenerator, double, ptr, ptr }
%struct.PaUtilTriangularDitherGenerator = type { i32, i32, i32 }
%struct.pa_buffer_attr = type { i32, i32, i32, i32, i32 }
%struct.PaUtilRingBuffer = type { i64, i64, i64, i64, i64, i64, ptr }

; Function Attrs: nounwind uwtable
define void @PaPulseAudio_StreamUnderflowCb(ptr noundef %0, ptr noundef %1) #0 {
  %3 = alloca ptr, align 8
  %4 = alloca ptr, align 8
  %5 = alloca ptr, align 8
  %6 = alloca ptr, align 8
  store ptr %0, ptr %3, align 8
  store ptr %1, ptr %4, align 8
  %7 = load ptr, ptr %4, align 8
  store ptr %7, ptr %5, align 8
  store ptr null, ptr %6, align 8
  %8 = load ptr, ptr %3, align 8
  %9 = icmp ne ptr %8, null
  br i1 %9, label %11, label %10

10:                                               ; preds = %2
  br label %21

11:                                               ; preds = %2
  %12 = load ptr, ptr %5, align 8
  %13 = getelementptr inbounds nuw %struct.PaPulseAudio_Stream, ptr %12, i32 0, i32 14
  %14 = load i32, ptr %13, align 4
  %15 = add nsw i32 %14, 1
  store i32 %15, ptr %13, align 4
  %16 = load ptr, ptr %3, align 8
  %17 = call ptr @pa_stream_get_buffer_attr(ptr noundef %16)
  store ptr %17, ptr %6, align 8
  %18 = load ptr, ptr %5, align 8
  %19 = getelementptr inbounds nuw %struct.PaPulseAudio_Stream, ptr %18, i32 0, i32 5
  %20 = load ptr, ptr %19, align 8
  call void @pa_threaded_mainloop_signal(ptr noundef %20, i32 noundef 0)
  br label %21

21:                                               ; preds = %11, %10
  ret void
}