; Function Attrs: nounwind uwtable
define void @PaPulseAudio_StreamUnderflowCb(ptr noundef %0, ptr nocapture noundef %1) #0 {
  %.not = icmp eq ptr %0, null
  br i1 %.not, label %10, label %3

3:                                                ; preds = %2
  %4 = getelementptr inbounds nuw i8, ptr %1, i64 524
  %5 = load i32, ptr %4, align 4
  %6 = add nsw i32 %5, 1
  store i32 %6, ptr %4, align 4
  %7 = tail call ptr @pa_stream_get_buffer_attr(ptr noundef nonnull %0) #13
  %8 = getelementptr inbounds nuw i8, ptr %1, i64 424
  %9 = load ptr, ptr %8, align 8
  tail call void @pa_threaded_mainloop_signal(ptr noundef %9, i32 noundef 0) #13
  br label %10

10:                                               ; preds = %2, %3
  ret void
}